; Function Attrs: mustprogress nounwind uwtable
define hidden noundef range(i32 0, 111) i32 @_ZN8JvmtiEnv17SetSystemPropertyEPKcS1_(ptr nocapture noundef nonnull readnone align 8 dereferenceable(460) %0, ptr nocapture noundef readonly %1, ptr noundef %2) local_unnamed_addr #0 align 2 {
  %.09 = load ptr, ptr @_ZN9Arguments18_system_propertiesE, align 8
  %.not10 = icmp eq ptr %.09, null
  br i1 %.not10, label %.loopexit, label %.lr.ph

.lr.ph:                                           ; preds = %3, %14
  %.011 = phi ptr [ %.0, %14 ], [ %.09, %3 ]
  %4 = getelementptr inbounds i8, ptr %.011, i64 8
  %5 = load ptr, ptr %4, align 8
  %6 = tail call i32 @strcmp(ptr noundef nonnull dereferenceable(1) %1, ptr noundef nonnull dereferenceable(1) %5) #18
  %7 = icmp eq i32 %6, 0
  br i1 %7, label %8, label %14

8:                                                ; preds = %.lr.ph
  %9 = getelementptr inbounds i8, ptr %.011, i64 25
  %10 = load i8, ptr %9, align 1
  %11 = trunc i8 %10 to i1
  br i1 %11, label %12, label %.loopexit

12:                                               ; preds = %8
  %13 = tail call noundef zeroext i1 @_ZN10PathString9set_valueEPKcN17AllocFailStrategy13AllocFailEnumE(ptr noundef nonnull align 8 dereferenceable(8) %.011, ptr noundef %2, i32 noundef 1) #17
  %. = select i1 %13, i32 0, i32 110
  br label %.loopexit

14:                                               ; preds = %.lr.ph
  %15 = getelementptr inbounds i8, ptr %.011, i64 16
  %.0 = load ptr, ptr %15, align 8
  %.not = icmp eq ptr %.0, null
  br i1 %.not, label %.loopexit, label %.lr.ph, !llvm.loop !50

.loopexit:                                        ; preds = %14, %3, %8, %12
  %.07 = phi i32 [ %., %12 ], [ 98, %8 ], [ 98, %3 ], [ 98, %14 ]
  ret i32 %.07
}